; Function Attrs: nounwind uwtable
define internal fastcc void @apply_theme(ptr noundef nonnull %0, ptr noundef %1) unnamed_addr #0 {
  %3 = getelementptr inbounds nuw i8, ptr %0, i64 8
  %4 = load ptr, ptr %3, align 8, !tbaa !18
  %.not = icmp eq ptr %4, null
  br i1 %.not, label %6, label %5

5:                                                ; preds = %2
  tail call fastcc void @apply_theme(ptr noundef %4, ptr noundef %1)
  br label %6

6:                                                ; preds = %5, %2
  %7 = load ptr, ptr %0, align 8, !tbaa !24
  %.not8 = icmp eq ptr %7, null
  br i1 %.not8, label %9, label %8

8:                                                ; preds = %6
  tail call void %7(ptr noundef nonnull %0, ptr noundef %1) #3
  br label %9

9:                                                ; preds = %8, %6
  ret void
}